ccopy_reg
_reconstructor
p0
(ceasydict
EasyDict
p1
c__builtin__
dict
p2
(dp3
S'subzone'
p4
F0.0
sS'E'
p5
F162123.0
sS'orientation'
p6
F30.0
sS'H'
p7
F3.709e-12
sS'w0'
p8
F300672.0
sS'VR'
p9
F3.449088458997648e-10
sS'fc'
p10
F0.0759375
sS'etaFault'
p11
F2.05e+20
sS'rho'
p12
I3300
sS'V'
p13
F3.4570000000000004e-23
sS'faultDepth'
p14
F250000.0
sS'a'
p15
F2e-05
sS'c'
p16
F1200.0
sS'eta0'
p17
F2.05e+22
sS'g'
p18
F9.8
sS'SR'
p19
F1.1893408479302234e-16
sS'k'
p20
F1e-06
sS'StALS'
p21
F100000.0
sS'TS'
p22
F273.0
sS'deltaT'
p23
I1300
sS'cohesion'
p24
F10000.0
sS'R'
p25
F8.314
sS'LS'
p26
F2900000.0
sS'TI'
p27
F1573.0
stp28
Rp29
(dp30
S'orientation'
p31
F30.0
sS'etaFault'
p32
F2.05e+20
sS'w0'
p33
F300672.0
sS'faultDepth'
p34
F250000.0
sS'deltaT'
p35
I1300
sS'StALS'
p36
F100000.0
sS'TS'
p37
F273.0
sS'LS'
p38
F2900000.0
sS'TI'
p39
F1573.0
sS'subzone'
p40
F0.0
sS'E'
p41
F162123.0
sS'H'
p42
F3.709e-12
sS'VR'
p43
F3.449088458997648e-10
sS'fc'
p44
F0.0759375
sS'rho'
p45
I3300
sS'V'
p46
F3.4570000000000004e-23
sS'a'
p47
F2e-05
sS'c'
p48
F1200.0
sS'eta0'
p49
F2.05e+22
sS'g'
p50
F9.8
sS'SR'
p51
F1.1893408479302234e-16
sS'k'
p52
F1e-06
sS'cohesion'
p53
F10000.0
sS'R'
p54
F8.314
sb.