ccopy_reg
_reconstructor
p0
(ceasydict
EasyDict
p1
c__builtin__
dict
p2
(dp3
S'RES'
p4
F64.0
sS'refineMesh'
p5
I01
sS'compBuoyancy'
p6
I00
sS'faultType'
p7
S'None'
p8
sS'stickyAir'
p9
I00
sS'symmetricIcs'
p10
I00
sS'lower_mantle'
p11
I00
sS'periodicBcs'
p12
I01
sS'subductionFault'
p13
I00
sS'melt_viscosity_reduction'
p14
I00
sS'aspectRatio'
p15
I4
sS'elementType'
p16
S'Q2/dpc1'
p17
sS'velBcs'
p18
I00
stp19
Rp20
(dp21
g4
F64.0
sg5
I01
sg6
I00
sg7
g8
sg9
I00
sg10
I00
sg11
I00
sg12
I01
sg13
I00
sg14
I00
sg15
I4
sg16
g17
sg18
I00
sb.