ccopy_reg
_reconstructor
p0
(ceasydict
EasyDict
p1
c__builtin__
dict
p2
(dp3
S'subzone'
p4
F0.0
sS'E'
p5
F14.999999999999998
sS'orientation'
p6
F30.0
sS'H'
p7
F19.9953141025641
sS'TIP'
p8
F1.0
sS'VR'
p9
F1000.2356531093179
sS'eta_min'
p10
F0.001
sS'Steta0'
p11
F100.0
sS'etaFault'
p12
F0.01
sS'W'
p13
F0.00029997428063877426
sS'w0'
p14
F0.06
sS'faultDepth'
p15
F0.08620689655172414
sS'StRA'
p16
F38475134.63414635
sS'eta_max'
p17
F100000.0
sS'TSP'
p18
F0.0
sS'SR'
p19
F1000.2356531093179
sS'TS'
p20
F0.21
sS'n'
p21
F1.0
sS'cohesion'
p22
F4.102439024390244
sS'RA'
p23
F1000353.500487805
sS'TI'
p24
F1.21
sS'fcd'
p25
F865690.5292682928
sS'Tmvp'
p26
F0.6
sS'gamma'
p27
F0.8653846153846153
stp28
Rp29
(dp30
g6
F30.0
sg8
F1.0
sg10
F0.001
sg11
F100.0
sg12
F0.01
sg14
F0.06
sg15
F0.08620689655172414
sg17
F100000.0
sg18
F0.0
sg20
F0.21
sg23
F1000353.500487805
sg24
F1.21
sg26
F0.6
sg4
F0.0
sg5
F14.999999999999998
sg7
F19.9953141025641
sg9
F1000.2356531093179
sg25
F865690.5292682928
sg13
F0.00029997428063877426
sg16
F38475134.63414635
sg19
F1000.2356531093179
sg21
F1.0
sg22
F4.102439024390244
sg27
F0.8653846153846153
sb.