ccopy_reg
_reconstructor
p0
(ceasydict
EasyDict
p1
c__builtin__
dict
p2
(dp3
S'stress'
p4
F0.0004102439024390244
sS'E'
p5
F9.252234414611127e-05
sS'W'
p6
F8677300.568087194
sS'H'
p7
F5391025641025.642
sS'SR'
p8
F8.41e+18
sS'vel'
p9
F2900000000000.0
sS'lith_grad'
p10
F38475134.63414635
stp11
Rp12
(dp13
g4
F0.0004102439024390244
sg5
F9.252234414611127e-05
sg8
F8.41e+18
sg6
F8677300.568087194
sg7
F5391025641025.642
sg9
F2900000000000.0
sg10
F38475134.63414635
sb.